; Function Attrs: mustprogress nofree norecurse nosync nounwind memory(readwrite, inaccessiblemem: none) uwtable
define dso_local void @_ZN4llvm14DebugValueUser17untrackDebugValueEm(ptr noundef nonnull align 8 dereferenceable(24) %0, i64 noundef %1) local_unnamed_addr #2 align 2 {
  %3 = getelementptr inbounds [3 x ptr], ptr %0, i64 0, i64 %1
  %4 = load ptr, ptr %3, align 8
  %.not = icmp eq ptr %4, null
  br i1 %.not, label %6, label %5

5:                                                ; preds = %2
  tail call void @_ZN4llvm16MetadataTracking7untrackEPvRNS_8MetadataE(ptr noundef nonnull %3, ptr noundef nonnull align 4 dereferenceable(8) %4)
  br label %6

6:                                                ; preds = %5, %2
  ret void
}